; Function Attrs: nofree norecurse nosync nounwind memory(read, argmem: readwrite, inaccessiblemem: none) uwtable
define internal void @yuv2v30xle_X_c(ptr readnone captures(none) %0, ptr noundef readonly captures(none) %1, ptr noundef readonly captures(none) %2, i32 noundef %3, ptr noundef readonly captures(none) %4, ptr noundef readonly captures(none) %5, ptr noundef readonly captures(none) %6, i32 noundef %7, ptr readnone captures(none) %8, ptr noundef writeonly captures(none) %9, i32 noundef %10, i32 %11) #3 {
  %13 = icmp sgt i32 %10, 0
  br i1 %13, label %.preheader11.lr.ph, label %yuv2v30_X_c_template.exit

.preheader11.lr.ph:                               ; preds = %12
  %14 = icmp sgt i32 %3, 0
  %15 = icmp sgt i32 %7, 0
  %wide.trip.count73 = zext nneg i32 %10 to i64
  br i1 %15, label %.preheader11.lr.ph.split.us, label %.preheader11.lr.ph.split

.preheader11.lr.ph.split.us:                      ; preds = %.preheader11.lr.ph
  br i1 %14, label %.preheader11.us.us.preheader, label %.preheader11.us.preheader

.preheader11.us.preheader:                        ; preds = %.preheader11.lr.ph.split.us
  %wide.trip.count53 = zext nneg i32 %7 to i64
  br label %.preheader11.us

.preheader11.us.us.preheader:                     ; preds = %.preheader11.lr.ph.split.us
  %wide.trip.count63 = zext nneg i32 %3 to i64
  %wide.trip.count68 = zext nneg i32 %7 to i64
  br label %.preheader11.us.us

.preheader11.us.us:                               ; preds = %.preheader11.us.us.preheader, %._crit_edge.us.us
  %indvars.iv70 = phi i64 [ 0, %.preheader11.us.us.preheader ], [ %indvars.iv.next71, %._crit_edge.us.us ]
  br label %33

..preheader_crit_edge.us.us:                      ; preds = %33, %..preheader_crit_edge.us.us
  %indvars.iv65 = phi i64 [ %indvars.iv.next66, %..preheader_crit_edge.us.us ], [ 0, %33 ]
  %.040.i15.us.us = phi i32 [ %32, %..preheader_crit_edge.us.us ], [ 65536, %33 ]
  %.041.i14.us.us = phi i32 [ %25, %..preheader_crit_edge.us.us ], [ 65536, %33 ]
  %16 = getelementptr inbounds nuw ptr, ptr %5, i64 %indvars.iv65
  %17 = load ptr, ptr %16, align 8, !tbaa !43
  %18 = getelementptr inbounds nuw i16, ptr %17, i64 %indvars.iv70
  %19 = load i16, ptr %18, align 2, !tbaa !39
  %20 = sext i16 %19 to i32
  %21 = getelementptr inbounds nuw i16, ptr %4, i64 %indvars.iv65
  %22 = load i16, ptr %21, align 2, !tbaa !39
  %23 = sext i16 %22 to i32
  %24 = mul nsw i32 %23, %20
  %25 = add nsw i32 %24, %.041.i14.us.us
  %26 = getelementptr inbounds nuw ptr, ptr %6, i64 %indvars.iv65
  %27 = load ptr, ptr %26, align 8, !tbaa !43
  %28 = getelementptr inbounds nuw i16, ptr %27, i64 %indvars.iv70
  %29 = load i16, ptr %28, align 2, !tbaa !39
  %30 = sext i16 %29 to i32
  %31 = mul nsw i32 %30, %23
  %32 = add nsw i32 %31, %.040.i15.us.us
  %indvars.iv.next66 = add nuw nsw i64 %indvars.iv65, 1
  %exitcond69.not = icmp eq i64 %indvars.iv.next66, %wide.trip.count68
  br i1 %exitcond69.not, label %._crit_edge.us.us, label %..preheader_crit_edge.us.us, !llvm.loop !154

33:                                               ; preds = %.preheader11.us.us, %33
  %indvars.iv60 = phi i64 [ 0, %.preheader11.us.us ], [ %indvars.iv.next61, %33 ]
  %.042.i12.us.us = phi i32 [ 65536, %.preheader11.us.us ], [ %43, %33 ]
  %34 = getelementptr inbounds nuw ptr, ptr %2, i64 %indvars.iv60
  %35 = load ptr, ptr %34, align 8, !tbaa !43
  %36 = getelementptr inbounds nuw i16, ptr %35, i64 %indvars.iv70
  %37 = load i16, ptr %36, align 2, !tbaa !39
  %38 = sext i16 %37 to i32
  %39 = getelementptr inbounds nuw i16, ptr %1, i64 %indvars.iv60
  %40 = load i16, ptr %39, align 2, !tbaa !39
  %41 = sext i16 %40 to i32
  %42 = mul nsw i32 %41, %38
  %43 = add nsw i32 %42, %.042.i12.us.us
  %indvars.iv.next61 = add nuw nsw i64 %indvars.iv60, 1
  %exitcond64.not = icmp eq i64 %indvars.iv.next61, %wide.trip.count63
  br i1 %exitcond64.not, label %..preheader_crit_edge.us.us, label %33, !llvm.loop !155

._crit_edge.us.us:                                ; preds = %..preheader_crit_edge.us.us
  %44 = ashr i32 %43, 17
  %45 = tail call i32 @llvm.smax.i32(i32 %44, i32 0)
  %46 = tail call i32 @llvm.umin.i32(i32 %45, i32 1023)
  %47 = ashr i32 %25, 17
  %48 = tail call i32 @llvm.smax.i32(i32 %47, i32 0)
  %49 = tail call i32 @llvm.umin.i32(i32 %48, i32 1023)
  %50 = ashr i32 %32, 17
  %51 = tail call i32 @llvm.smax.i32(i32 %50, i32 0)
  %52 = tail call i32 @llvm.umin.i32(i32 %51, i32 1023)
  %53 = shl nuw nsw i32 %49, 2
  %54 = shl nuw nsw i32 %46, 12
  %55 = or disjoint i32 %53, %54
  %56 = shl nuw i32 %52, 22
  %57 = or disjoint i32 %55, %56
  %58 = or disjoint i32 %57, 3
  %59 = shl nsw i64 %indvars.iv70, 2
  %60 = getelementptr inbounds nuw i8, ptr %9, i64 %59
  store i32 %58, ptr %60, align 1, !tbaa !41
  %indvars.iv.next71 = add nuw nsw i64 %indvars.iv70, 1
  %exitcond74.not = icmp eq i64 %indvars.iv.next71, %wide.trip.count73
  br i1 %exitcond74.not, label %yuv2v30_X_c_template.exit, label %.preheader11.us.us, !llvm.loop !156

.preheader11.us:                                  ; preds = %.preheader11.us.preheader, %._crit_edge.us
  %indvars.iv55 = phi i64 [ 0, %.preheader11.us.preheader ], [ %indvars.iv.next56, %._crit_edge.us ]
  br label %61

61:                                               ; preds = %.preheader11.us, %61
  %indvars.iv50 = phi i64 [ 0, %.preheader11.us ], [ %indvars.iv.next51, %61 ]
  %.040.i15.us = phi i32 [ 65536, %.preheader11.us ], [ %78, %61 ]
  %.041.i14.us = phi i32 [ 65536, %.preheader11.us ], [ %71, %61 ]
  %62 = getelementptr inbounds nuw ptr, ptr %5, i64 %indvars.iv50
  %63 = load ptr, ptr %62, align 8, !tbaa !43
  %64 = getelementptr inbounds nuw i16, ptr %63, i64 %indvars.iv55
  %65 = load i16, ptr %64, align 2, !tbaa !39
  %66 = sext i16 %65 to i32
  %67 = getelementptr inbounds nuw i16, ptr %4, i64 %indvars.iv50
  %68 = load i16, ptr %67, align 2, !tbaa !39
  %69 = sext i16 %68 to i32
  %70 = mul nsw i32 %69, %66
  %71 = add nsw i32 %70, %.041.i14.us
  %72 = getelementptr inbounds nuw ptr, ptr %6, i64 %indvars.iv50
  %73 = load ptr, ptr %72, align 8, !tbaa !43
  %74 = getelementptr inbounds nuw i16, ptr %73, i64 %indvars.iv55
  %75 = load i16, ptr %74, align 2, !tbaa !39
  %76 = sext i16 %75 to i32
  %77 = mul nsw i32 %76, %69
  %78 = add nsw i32 %77, %.040.i15.us
  %indvars.iv.next51 = add nuw nsw i64 %indvars.iv50, 1
  %exitcond54.not = icmp eq i64 %indvars.iv.next51, %wide.trip.count53
  br i1 %exitcond54.not, label %._crit_edge.us, label %61, !llvm.loop !154

._crit_edge.us:                                   ; preds = %61
  %79 = ashr i32 %71, 17
  %80 = tail call i32 @llvm.smax.i32(i32 %79, i32 0)
  %81 = tail call i32 @llvm.umin.i32(i32 %80, i32 1023)
  %82 = ashr i32 %78, 17
  %83 = tail call i32 @llvm.smax.i32(i32 %82, i32 0)
  %84 = tail call i32 @llvm.umin.i32(i32 %83, i32 1023)
  %85 = shl nuw nsw i32 %81, 2
  %86 = shl nuw i32 %84, 22
  %87 = or disjoint i32 %85, %86
  %88 = or disjoint i32 %87, 3
  %89 = shl nsw i64 %indvars.iv55, 2
  %90 = getelementptr inbounds nuw i8, ptr %9, i64 %89
  store i32 %88, ptr %90, align 1, !tbaa !41
  %indvars.iv.next56 = add nuw nsw i64 %indvars.iv55, 1
  %exitcond59.not = icmp eq i64 %indvars.iv.next56, %wide.trip.count73
  br i1 %exitcond59.not, label %yuv2v30_X_c_template.exit, label %.preheader11.us, !llvm.loop !156

.preheader11.lr.ph.split:                         ; preds = %.preheader11.lr.ph
  br i1 %14, label %.preheader11.us21.preheader, label %.preheader11

.preheader11.us21.preheader:                      ; preds = %.preheader11.lr.ph.split
  %wide.trip.count43 = zext nneg i32 %3 to i64
  br label %.preheader11.us21

.preheader11.us21:                                ; preds = %.preheader11.us21.preheader, %..preheader_crit_edge.us29
  %indvars.iv45 = phi i64 [ 0, %.preheader11.us21.preheader ], [ %indvars.iv.next46, %..preheader_crit_edge.us29 ]
  br label %91

91:                                               ; preds = %.preheader11.us21, %91
  %indvars.iv40 = phi i64 [ 0, %.preheader11.us21 ], [ %indvars.iv.next41, %91 ]
  %.042.i12.us24 = phi i32 [ 65536, %.preheader11.us21 ], [ %101, %91 ]
  %92 = getelementptr inbounds nuw ptr, ptr %2, i64 %indvars.iv40
  %93 = load ptr, ptr %92, align 8, !tbaa !43
  %94 = getelementptr inbounds nuw i16, ptr %93, i64 %indvars.iv45
  %95 = load i16, ptr %94, align 2, !tbaa !39
  %96 = sext i16 %95 to i32
  %97 = getelementptr inbounds nuw i16, ptr %1, i64 %indvars.iv40
  %98 = load i16, ptr %97, align 2, !tbaa !39
  %99 = sext i16 %98 to i32
  %100 = mul nsw i32 %99, %96
  %101 = add nsw i32 %100, %.042.i12.us24
  %indvars.iv.next41 = add nuw nsw i64 %indvars.iv40, 1
  %exitcond44.not = icmp eq i64 %indvars.iv.next41, %wide.trip.count43
  br i1 %exitcond44.not, label %..preheader_crit_edge.us29, label %91, !llvm.loop !155

..preheader_crit_edge.us29:                       ; preds = %91
  %102 = ashr i32 %101, 17
  %103 = tail call i32 @llvm.smax.i32(i32 %102, i32 0)
  %104 = tail call i32 @llvm.umin.i32(i32 %103, i32 1023)
  %105 = shl nuw nsw i32 %104, 12
  %106 = or disjoint i32 %105, 3
  %107 = shl nsw i64 %indvars.iv45, 2
  %108 = getelementptr inbounds nuw i8, ptr %9, i64 %107
  store i32 %106, ptr %108, align 1, !tbaa !41
  %indvars.iv.next46 = add nuw nsw i64 %indvars.iv45, 1
  %exitcond49.not = icmp eq i64 %indvars.iv.next46, %wide.trip.count73
  br i1 %exitcond49.not, label %yuv2v30_X_c_template.exit, label %.preheader11.us21, !llvm.loop !156

.preheader11:                                     ; preds = %.preheader11.lr.ph.split, %.preheader11
  %indvars.iv = phi i64 [ %indvars.iv.next, %.preheader11 ], [ 0, %.preheader11.lr.ph.split ]
  %109 = shl nsw i64 %indvars.iv, 2
  %110 = getelementptr inbounds nuw i8, ptr %9, i64 %109
  store i32 3, ptr %110, align 1, !tbaa !41
  %indvars.iv.next = add nuw nsw i64 %indvars.iv, 1
  %exitcond.not = icmp eq i64 %indvars.iv.next, %wide.trip.count73
  br i1 %exitcond.not, label %yuv2v30_X_c_template.exit, label %.preheader11, !llvm.loop !156

yuv2v30_X_c_template.exit:                        ; preds = %.preheader11, %..preheader_crit_edge.us29, %._crit_edge.us, %._crit_edge.us.us, %12
  ret void
}